(lp0
(lp1
I20
aI40
aI60
aI80
aI100
aI120
aI140
aI160
aI180
aI200
aI220
aI240
aI260
aI280
aI300
aI320
aI340
aI360
aI380
aI400
aI420
aI440
aI460
aI480
aI500
aI520
aI540
aI560
aI580
aI600
aI620
aI640
aI660
aI680
aI700
aI720
aI740
aI760
aI780
aI800
aI820
aI840
aI860
aI880
aI900
aI920
aI940
aI960
aI980
aI1000
aI1020
aI1040
aI1060
aI1080
aI1100
aI1120
aI1140
aI1160
aI1180
aI1200
aI1220
aI1240
aI1260
aI1280
aI1300
aI1320
aI1340
aI1360
aI1380
aI1400
aI1420
aI1440
aI1460
aI1480
aI1500
aI1520
aI1540
aI1560
aI1580
aI1600
aI1620
aI1640
aI1660
aI1680
aI1700
aI1720
aI1740
aI1760
aI1780
aI1800
aI1820
aI1840
aI1860
aI1880
aI1900
aI1920
aI1940
aI1960
aI1980
aI2000
aI2020
aI2040
aI2060
aI2080
aI2100
aI2120
aI2140
aI2160
aI2180
aI2200
aI2220
aI2240
aI2260
aI2280
aI2300
aI2320
aI2340
aI2360
aI2380
aI2400
aI2420
aI2440
aI2460
aI2480
aI2500
aI2520
aI2540
aI2560
aI2580
aI2600
aI2620
aI2640
aI2660
aI2680
aI2700
aI2720
aI2740
aI2760
aI2780
aI2800
aI2820
aI2840
aI2860
aI2880
aI2900
aI2920
aI2940
aI2960
aI2980
aI3000
aI3020
aI3040
aI3060
aI3080
aI3100
aI3120
aI3140
aI3160
aI3180
aI3200
aI3220
aI3240
aI3260
aI3280
aI3300
aI3320
aI3340
aI3360
aI3380
aI3400
aI3420
aI3440
aI3460
aI3480
aI3500
aI3520
aI3540
aI3560
aI3580
aI3600
aI3620
aI3640
aI3660
aI3680
aI3700
aI3720
aI3740
aI3760
aI3780
aI3800
aI3820
aI3840
aI3860
aI3880
aI3900
aI3920
aI3940
aI3960
aI3980
aI4000
aI4020
aI4040
aI4060
aI4080
aI4100
aI4120
aI4140
aI4160
aI4180
aI4200
aI4220
aI4240
aI4260
aI4280
aI4300
aI4320
aI4340
aI4360
aI4380
aI4400
aI4420
aI4440
aI4460
aI4480
aI4500
aI4520
aI4540
aI4560
aI4580
aI4600
aI4620
aI4640
aI4660
aI4680
aI4700
aI4720
aI4740
aI4760
aI4780
aI4800
aa(lp2
F328.8116760253906
aF315.20184326171875
aF402.9574890136719
aF275.4809875488281
aF381.2647399902344
aF256.46954345703125
aF408.4696350097656
aF207.920166015625
aF372.50372314453125
aF284.42510986328125
aF463.5096740722656
aF471.6004638671875
aF159.13885498046875
aF236.87818908691406
aF337.0565185546875
aF383.7588195800781
aF253.4654541015625
aF271.7038269042969
aF411.7147521972656
aF197.58233642578125
aF164.41317749023438
aF303.3766174316406
aF254.1500244140625
aF307.47216796875
aF305.3363342285156
aF328.7164001464844
aF223.20822143554688
aF319.54144287109375
aF218.13697814941406
aF155.3712921142578
aF313.35552978515625
aF216.24659729003906
aF145.42181396484375
aF252.71450805664062
aF283.675537109375
aF217.353759765625
aF246.51063537597656
aF307.4322204589844
aF254.24205017089844
aF198.96295166015625
aF251.51016235351562
aF206.674560546875
aF291.8691101074219
aF291.04705810546875
aF106.6048583984375
aF202.1047821044922
aF124.48075866699219
aF174.60708618164062
aF238.00827026367188
aF233.66964721679688
aF128.45449829101562
aF111.63212585449219
aF166.6412353515625
aF263.108642578125
aF241.72914123535156
aF130.51010131835938
aF190.29615783691406
aF161.66741943359375
aF240.18499755859375
aF175.3754119873047
aF215.7495574951172
aF205.34849548339844
aF160.87417602539062
aF87.94412994384766
aF113.7635269165039
aF173.83912658691406
aF172.546630859375
aF159.99815368652344
aF243.86395263671875
aF131.23216247558594
aF122.12935638427734
aF194.99581909179688
aF147.8598175048828
aF150.77842712402344
aF180.06051635742188
aF204.02468872070312
aF65.5542221069336
aF104.74285125732422
aF142.9215850830078
aF98.65119171142578
aF149.3705596923828
aF238.81748962402344
aF168.8458709716797
aF169.33079528808594
aF77.08154296875
aF136.627197265625
aF146.34764099121094
aF107.64366149902344
aF164.24765014648438
aF132.5067901611328
aF156.1883087158203
aF117.7441177368164
aF106.08715057373047
aF114.94087219238281
aF61.34596252441406
aF132.02914428710938
aF83.3985366821289
aF51.82200622558594
aF103.87217712402344
aF93.41645050048828
aF112.42340087890625
aF153.2112274169922
aF18.844654083251953
aF137.49269104003906
aF186.06195068359375
aF77.93264770507812
aF90.87059020996094
aF88.52101135253906
aF126.07916259765625
aF69.67220306396484
aF85.06455993652344
aF143.49559020996094
aF81.9478759765625
aF138.88783264160156
aF112.3604736328125
aF91.76573944091797
aF90.04945373535156
aF46.055999755859375
aF86.2308578491211
aF127.85279083251953
aF73.50145721435547
aF98.86705017089844
aF55.8714599609375
aF110.13522338867188
aF73.1734390258789
aF53.93413543701172
aF54.933284759521484
aF104.29007720947266
aF87.74018096923828
aF71.34999084472656
aF85.84983825683594
aF92.86724853515625
aF124.0738296508789
aF62.38555145263672
aF89.09333801269531
aF65.4659423828125
aF123.9755859375
aF72.82981872558594
aF49.84673309326172
aF82.43836212158203
aF72.26343536376953
aF116.3597640991211
aF117.67757415771484
aF66.01507568359375
aF99.78279113769531
aF84.68531799316406
aF81.5384292602539
aF86.09004211425781
aF104.12564086914062
aF81.92753601074219
aF66.20794677734375
aF83.68962097167969
aF61.123870849609375
aF63.67695236206055
aF67.49640655517578
aF51.34745788574219
aF77.70914459228516
aF36.37422180175781
aF27.68877410888672
aF114.55626678466797
aF88.22184753417969
aF61.00196838378906
aF72.64834594726562
aF62.61037063598633
aF37.69194030761719
aF23.767986297607422
aF66.26013946533203
aF90.38812255859375
aF73.63185119628906
aF143.98135375976562
aF62.633644104003906
aF43.990570068359375
aF47.352787017822266
aF105.75436401367188
aF42.2322998046875
aF50.35515594482422
aF84.45955657958984
aF64.74207305908203
aF55.279815673828125
aF122.43260955810547
aF45.95229721069336
aF37.451107025146484
aF87.2217788696289
aF59.601016998291016
aF52.559242248535156
aF64.98502349853516
aF38.895206451416016
aF64.16435241699219
aF82.03497314453125
aF46.02338790893555
aF152.7099609375
aF44.47776412963867
aF69.5643310546875
aF28.791709899902344
aF67.59773254394531
aF33.16759490966797
aF40.32765579223633
aF122.53939819335938
aF23.821592330932617
aF78.73150634765625
aF55.79950714111328
aF67.02606964111328
aF96.63159942626953
aF30.70116424560547
aF76.75689697265625
aF96.41161346435547
aF47.12936019897461
aF72.74200439453125
aF56.449195861816406
aF86.15409088134766
aF65.49263763427734
aF32.61137390136719
aF50.15167999267578
aF8.955379486083984
aF38.825828552246094
aF38.88545227050781
aF44.118770599365234
aF32.127376556396484
aF48.085479736328125
aF56.65030288696289
aF64.81863403320312
aF45.13768768310547
aF59.36436462402344
aF32.47026062011719
aF45.69585037231445
aF28.51653289794922
aF31.65281105041504
aF58.94581604003906
aF40.422035217285156
aF73.1754379272461
aF35.23310470581055
aF34.73947525024414
aF38.01725769042969
aF53.989471435546875
aF78.6194076538086
aF34.04936599731445
aF55.00115966796875
aF83.09534454345703
aF72.99391174316406
aF18.272451400756836
aa.