(lp0
(lp1
I20
aI40
aI60
aI80
aI100
aI120
aI140
aI160
aI180
aI200
aI220
aI240
aI260
aI280
aI300
aI320
aI340
aI360
aI380
aI400
aI420
aI440
aI460
aI480
aI500
aI520
aI540
aI560
aI580
aI600
aI620
aI640
aI660
aI680
aI700
aI720
aI740
aI760
aI780
aI800
aI820
aI840
aI860
aI880
aI900
aI920
aI940
aI960
aI980
aI1000
aI1020
aI1040
aI1060
aI1080
aI1100
aI1120
aI1140
aI1160
aI1180
aI1200
aI1220
aI1240
aI1260
aI1280
aI1300
aI1320
aI1340
aI1360
aI1380
aI1400
aI1420
aI1440
aI1460
aI1480
aI1500
aI1520
aI1540
aI1560
aI1580
aI1600
aI1620
aI1640
aI1660
aI1680
aI1700
aI1720
aI1740
aI1760
aI1780
aI1800
aI1820
aI1840
aI1860
aI1880
aI1900
aI1920
aI1940
aI1960
aI1980
aI2000
aI2020
aI2040
aI2060
aI2080
aI2100
aI2120
aI2140
aI2160
aI2180
aI2200
aI2220
aI2240
aI2260
aI2280
aI2300
aI2320
aI2340
aI2360
aI2380
aI2400
aI2420
aI2440
aI2460
aI2480
aI2500
aI2520
aI2540
aI2560
aI2580
aI2600
aI2620
aI2640
aI2660
aI2680
aI2700
aI2720
aI2740
aI2760
aI2780
aI2800
aI2820
aI2840
aI2860
aI2880
aI2900
aI2920
aI2940
aI2960
aI2980
aI3000
aI3020
aI3040
aI3060
aI3080
aI3100
aI3120
aI3140
aI3160
aI3180
aI3200
aI3220
aI3240
aI3260
aI3280
aI3300
aI3320
aI3340
aI3360
aI3380
aI3400
aI3420
aI3440
aI3460
aI3480
aI3500
aI3520
aI3540
aI3560
aI3580
aI3600
aI3620
aI3640
aI3660
aI3680
aI3700
aI3720
aI3740
aI3760
aI3780
aI3800
aI3820
aI3840
aI3860
aI3880
aI3900
aI3920
aI3940
aI3960
aI3980
aI4000
aI4020
aI4040
aI4060
aI4080
aI4100
aI4120
aI4140
aI4160
aI4180
aI4200
aI4220
aI4240
aI4260
aI4280
aI4300
aI4320
aI4340
aI4360
aI4380
aI4400
aI4420
aI4440
aI4460
aI4480
aI4500
aI4520
aI4540
aI4560
aI4580
aI4600
aI4620
aI4640
aI4660
aI4680
aI4700
aI4720
aI4740
aI4760
aI4780
aI4800
aa(lp2
F0.5485240817070007
aF0.35685810446739197
aF0.339384526014328
aF0.43002334237098694
aF0.4611439108848572
aF0.39449357986450195
aF0.402700811624527
aF0.39910373091697693
aF0.08268268406391144
aF0.2809111177921295
aF0.42873430252075195
aF0.37133386731147766
aF0.2559889853000641
aF0.3391897678375244
aF0.2674826979637146
aF0.31866350769996643
aF0.2117420732975006
aF0.42716723680496216
aF0.23828533291816711
aF0.28740039467811584
aF0.16504065692424774
aF0.16538123786449432
aF0.34741342067718506
aF0.33721739053726196
aF0.1071036085486412
aF0.3397712707519531
aF0.22117632627487183
aF0.19596950709819794
aF0.32283028960227966
aF0.2743399143218994
aF0.2555891275405884
aF0.2063104510307312
aF0.3540653586387634
aF0.147771418094635
aF0.19626069068908691
aF0.2369641661643982
aF0.20263156294822693
aF0.1311517059803009
aF0.21433159708976746
aF0.14376738667488098
aF0.2720731794834137
aF0.22533343732357025
aF0.2354363352060318
aF0.20864573121070862
aF0.17390069365501404
aF0.2472272515296936
aF0.201075941324234
aF0.17898954451084137
aF0.2599404752254486
aF0.20399950444698334
aF0.2832739055156708
aF0.28107619285583496
aF0.17627660930156708
aF0.22993969917297363
aF0.20812217891216278
aF0.34020763635635376
aF0.26699474453926086
aF0.23104363679885864
aF0.21740299463272095
aF0.24462181329727173
aF0.16073991358280182
aF0.16471493244171143
aF0.261212557554245
aF0.219135582447052
aF0.21656212210655212
aF0.13657508790493011
aF0.24403586983680725
aF0.09232933819293976
aF0.2774217128753662
aF0.2130441665649414
aF0.15133260190486908
aF0.11797376722097397
aF0.1923721581697464
aF0.23577843606472015
aF0.19553521275520325
aF0.2746812105178833
aF0.1887115240097046
aF0.1433544158935547
aF0.15828119218349457
aF0.16771754622459412
aF0.19997231662273407
aF0.21465285122394562
aF0.12200669944286346
aF0.22864677011966705
aF0.24265703558921814
aF0.17189662158489227
aF0.20723745226860046
aF0.2112419307231903
aF0.12448812276124954
aF0.3885093629360199
aF0.1218043714761734
aF0.13399404287338257
aF0.14663046598434448
aF0.1519325226545334
aF0.09954158216714859
aF0.1892595738172531
aF0.19523614645004272
aF0.20887945592403412
aF0.2604933977127075
aF0.08901470899581909
aF0.1149960607290268
aF0.21459300816059113
aF0.21846121549606323
aF0.20113986730575562
aF0.14594674110412598
aF0.23509715497493744
aF0.11399902403354645
aF0.10655618458986282
aF0.23229002952575684
aF0.12090839445590973
aF0.21305109560489655
aF0.17201942205429077
aF0.23714815080165863
aF0.15865802764892578
aF0.19322429597377777
aF0.119741290807724
aF0.11486300081014633
aF0.09279270470142365
aF0.1601254791021347
aF0.1933026909828186
aF0.1301068663597107
aF0.14979718625545502
aF0.15465669333934784
aF0.11108771711587906
aF0.07702267169952393
aF0.10103223472833633
aF0.15358957648277283
aF0.1347481608390808
aF0.0892314612865448
aF0.1165400817990303
aF0.21101488173007965
aF0.10532539337873459
aF0.11980552226305008
aF0.13663603365421295
aF0.16695475578308105
aF0.16847315430641174
aF0.14602036774158478
aF0.11469724774360657
aF0.0936736911535263
aF0.1303941160440445
aF0.1692383587360382
aF0.1784966140985489
aF0.07940806448459625
aF0.17471002042293549
aF0.07909690588712692
aF0.21999706327915192
aF0.08746214210987091
aF0.11860085278749466
aF0.14809004962444305
aF0.0893954336643219
aF0.11405933648347855
aF0.09875661134719849
aF0.10452273488044739
aF0.11043877899646759
aF0.11291015148162842
aF0.14859429001808167
aF0.08388617634773254
aF0.13825508952140808
aF0.10671165585517883
aF0.13347956538200378
aF0.13376198709011078
aF0.17180447280406952
aF0.09097431600093842
aF0.16099557280540466
aF0.16787171363830566
aF0.13502249121665955
aF0.12263080477714539
aF0.1578938513994217
aF0.08911192417144775
aF0.16991060972213745
aF0.1345619112253189
aF0.1184658408164978
aF0.1263127624988556
aF0.12691709399223328
aF0.08479583263397217
aF0.10359326750040054
aF0.10951019078493118
aF0.12527215480804443
aF0.1567499339580536
aF0.12418409436941147
aF0.060038767755031586
aF0.1712855100631714
aF0.07638053596019745
aF0.17481599748134613
aF0.14845839142799377
aF0.1022857129573822
aF0.127211794257164
aF0.15360164642333984
aF0.10615210235118866
aF0.08430959284305573
aF0.055386099964380264
aF0.08739374577999115
aF0.1689877212047577
aF0.08919139951467514
aF0.08470495045185089
aF0.10810527205467224
aF0.12309936434030533
aF0.1706801950931549
aF0.12765038013458252
aF0.0946132093667984
aF0.08957510441541672
aF0.11686655133962631
aF0.05758656561374664
aF0.1769672930240631
aF0.07181252539157867
aF0.12805424630641937
aF0.09660593420267105
aF0.09298423677682877
aF0.11465577036142349
aF0.0812569111585617
aF0.10618394613265991
aF0.13489261269569397
aF0.11645279079675674
aF0.06212206557393074
aF0.10201773047447205
aF0.07313787937164307
aF0.11180789768695831
aF0.08078818768262863
aF0.1264139860868454
aF0.06202715262770653
aF0.0873345136642456
aF0.11378321051597595
aF0.07331006228923798
aF0.12687548995018005
aF0.09789232909679413
aF0.14355939626693726
aF0.1246412917971611
aF0.13663651049137115
aF0.09786281734704971
aF0.09562962502241135
aF0.11259476095438004
aF0.053090836852788925
aF0.09306680411100388
aF0.08522685617208481
aF0.1403103768825531
aF0.10864358395338058
aF0.09974395483732224
aF0.17667856812477112
aF0.12763255834579468
aF0.07746497541666031
aa.